; Function Attrs: mustprogress nofree norecurse nosync nounwind willreturn memory(read, inaccessiblemem: none) uwtable
define hidden ptr @b2GetJointSim(ptr noundef readonly captures(none) %0, ptr noundef readonly captures(none) %1) local_unnamed_addr #7 {
  %3 = getelementptr inbounds nuw i8, ptr %1, i64 8
  %4 = load i32, ptr %3, align 8, !tbaa !53
  %5 = icmp eq i32 %4, 2
  br i1 %5, label %6, label %12

6:                                                ; preds = %2
  %7 = getelementptr inbounds nuw i8, ptr %1, i64 12
  %8 = load i32, ptr %7, align 4, !tbaa !55
  %9 = sext i32 %8 to i64
  %.idx = mul nsw i64 %9, 56
  %10 = getelementptr i8, ptr %0, i64 368
  %11 = getelementptr i8, ptr %10, i64 %.idx
  br label %16

12:                                               ; preds = %2
  %13 = getelementptr inbounds nuw i8, ptr %0, i64 1072
  %.val12 = load ptr, ptr %13, align 8, !tbaa !56
  %14 = sext i32 %4 to i64
  %15 = getelementptr inbounds %struct.b2SolverSet, ptr %.val12, i64 %14, i32 2
  br label %16

16:                                               ; preds = %12, %6
  %.val11.sink.in = phi ptr [ %15, %12 ], [ %11, %6 ]
  %.val11.sink = load ptr, ptr %.val11.sink.in, align 8, !tbaa !14
  %.sink13.in = getelementptr inbounds nuw i8, ptr %1, i64 16
  %.sink13 = load i32, ptr %.sink13.in, align 8, !tbaa !59
  %17 = sext i32 %.sink13 to i64
  %18 = getelementptr inbounds %struct.b2JointSim, ptr %.val11.sink, i64 %17
  ret ptr %18
}